; Function Attrs: mustprogress nofree norecurse nosync nounwind willreturn memory(none) uwtable
define ptr @av_csp_trc_func_inv_from_id(i32 noundef %0) local_unnamed_addr #0 {
  %2 = icmp ugt i32 %0, 18
  br i1 %2, label %7, label %3

3:                                                ; preds = %1
  %4 = zext nneg i32 %0 to i64
  %5 = getelementptr inbounds nuw [19 x ptr], ptr @trc_inv_funcs, i64 0, i64 %4
  %6 = load ptr, ptr %5, align 8, !tbaa !18
  br label %7

7:                                                ; preds = %1, %3
  %.0 = phi ptr [ %6, %3 ], [ null, %1 ]
  ret ptr %.0
}